target datalayout = "e-m:e-p270:32:32-p271:32:32-p272:64:64-i64:64-i128:128-f80:128-n8:16:32:64-S128"
target triple = "x86_64-pc-linux-gnu"

%struct.SDL_Mouse = type { ptr, ptr, ptr, ptr, ptr, ptr, ptr, ptr, ptr, ptr, ptr, ptr, ptr, ptr, i8, float, float, ptr, float, float, float, float, float, float, float, float, double, double, i8, i8, i8, i8, i8, i8, i8, i8, i64, i8, float, i8, float, i8, i32, i32, i8, i8, i8, i8, i8, i8, i8, i8, i8, ptr, i32, ptr, ptr, ptr, ptr, i8, ptr }
%struct.SDL_Surface = type { i32, i32, i32, i32, i32, ptr, i32, ptr, i32, i32, ptr, i32, ptr, i32, ptr, i32, %struct.SDL_Rect, %struct.SDL_BlitMap }
%struct.SDL_Rect = type { i32, i32, i32, i32 }
%struct.SDL_BlitMap = type { i32, ptr, ptr, %struct.SDL_BlitInfo, i32, i32 }
%struct.SDL_BlitInfo = type { ptr, ptr, i32, i32, i32, i32, ptr, ptr, i32, i32, i32, i32, ptr, ptr, ptr, ptr, ptr, ptr, i32, i32, i8, i8, i8, i8 }
%struct.SDL_Cursor = type { ptr, ptr }

@SDL_mouse = internal global %struct.SDL_Mouse zeroinitializer, align 8
@.str.28 = private unnamed_addr constant [45 x i8] c"Cursor not associated with the current mouse\00", align 1

; Function Attrs: nounwind uwtable
define hidden void @SDL_RedrawCursor() #0 {
  %1 = alloca ptr, align 8
  %2 = alloca ptr, align 8
  call void @llvm.lifetime.start.p0(i64 8, ptr %1) #7
  %3 = call ptr @SDL_GetMouse()
  store ptr %3, ptr %1, align 8
  call void @llvm.lifetime.start.p0(i64 8, ptr %2) #7
  %4 = load ptr, ptr %1, align 8
  %5 = getelementptr inbounds nuw %struct.SDL_Mouse, ptr %4, i32 0, i32 17
  %6 = load ptr, ptr %5, align 8
  %7 = icmp ne ptr %6, null
  br i1 %7, label %8, label %12

8:                                                ; preds = %0
  %9 = load ptr, ptr %1, align 8
  %10 = getelementptr inbounds nuw %struct.SDL_Mouse, ptr %9, i32 0, i32 58
  %11 = load ptr, ptr %10, align 8
  store ptr %11, ptr %2, align 8
  br label %16

12:                                               ; preds = %0
  %13 = load ptr, ptr %1, align 8
  %14 = getelementptr inbounds nuw %struct.SDL_Mouse, ptr %13, i32 0, i32 57
  %15 = load ptr, ptr %14, align 8
  store ptr %15, ptr %2, align 8
  br label %16

16:                                               ; preds = %12, %8
  %17 = load ptr, ptr %1, align 8
  %18 = getelementptr inbounds nuw %struct.SDL_Mouse, ptr %17, i32 0, i32 17
  %19 = load ptr, ptr %18, align 8
  %20 = icmp ne ptr %19, null
  br i1 %20, label %21, label %37

21:                                               ; preds = %16
  %22 = load ptr, ptr %1, align 8
  %23 = getelementptr inbounds nuw %struct.SDL_Mouse, ptr %22, i32 0, i32 59
  %24 = load i8, ptr %23, align 8, !range !3, !noundef !4
  %25 = trunc i8 %24 to i1
  br i1 %25, label %26, label %36

26:                                               ; preds = %21
  %27 = load ptr, ptr %1, align 8
  %28 = getelementptr inbounds nuw %struct.SDL_Mouse, ptr %27, i32 0, i32 29
  %29 = load i8, ptr %28, align 1, !range !3, !noundef !4
  %30 = trunc i8 %29 to i1
  br i1 %30, label %31, label %37

31:                                               ; preds = %26
  %32 = load ptr, ptr %1, align 8
  %33 = getelementptr inbounds nuw %struct.SDL_Mouse, ptr %32, i32 0, i32 31
  %34 = load i8, ptr %33, align 1, !range !3, !noundef !4
  %35 = trunc i8 %34 to i1
  br i1 %35, label %36, label %37

36:                                               ; preds = %31, %21
  store ptr null, ptr %2, align 8
  br label %37

37:                                               ; preds = %36, %31, %26, %16
  %38 = load ptr, ptr %1, align 8
  %39 = getelementptr inbounds nuw %struct.SDL_Mouse, ptr %38, i32 0, i32 2
  %40 = load ptr, ptr %39, align 8
  %41 = icmp ne ptr %40, null
  br i1 %41, label %42, label %48

42:                                               ; preds = %37
  %43 = load ptr, ptr %1, align 8
  %44 = getelementptr inbounds nuw %struct.SDL_Mouse, ptr %43, i32 0, i32 2
  %45 = load ptr, ptr %44, align 8
  %46 = load ptr, ptr %2, align 8
  %47 = call zeroext i1 %45(ptr noundef %46)
  br label %48

48:                                               ; preds = %42, %37
  call void @llvm.lifetime.end.p0(i64 8, ptr %2) #7
  call void @llvm.lifetime.end.p0(i64 8, ptr %1) #7
  ret void
}

; Function Attrs: nounwind uwtable
define hidden zeroext i1 @SDL_SetCursor_REAL(ptr noundef %0) #0 {
  %2 = alloca i1, align 1
  %3 = alloca ptr, align 8
  %4 = alloca ptr, align 8
  %5 = alloca i32, align 4
  %6 = alloca ptr, align 8
  store ptr %0, ptr %3, align 8
  call void @llvm.lifetime.start.p0(i64 8, ptr %4) #7
  %7 = call ptr @SDL_GetMouse()
  store ptr %7, ptr %4, align 8
  %8 = load ptr, ptr %3, align 8
  %9 = load ptr, ptr %4, align 8
  %10 = getelementptr inbounds nuw %struct.SDL_Mouse, ptr %9, i32 0, i32 58
  %11 = load ptr, ptr %10, align 8
  %12 = icmp eq ptr %8, %11
  br i1 %12, label %13, label %14

13:                                               ; preds = %1
  store i1 true, ptr %2, align 1
  store i32 1, ptr %5, align 4
  br label %54

14:                                               ; preds = %1
  %15 = load ptr, ptr %3, align 8
  %16 = icmp ne ptr %15, null
  br i1 %16, label %17, label %53

17:                                               ; preds = %14
  %18 = load ptr, ptr %3, align 8
  %19 = load ptr, ptr %4, align 8
  %20 = getelementptr inbounds nuw %struct.SDL_Mouse, ptr %19, i32 0, i32 57
  %21 = load ptr, ptr %20, align 8
  %22 = icmp ne ptr %18, %21
  br i1 %22, label %23, label %49

23:                                               ; preds = %17
  call void @llvm.lifetime.start.p0(i64 8, ptr %6) #7
  %24 = load ptr, ptr %4, align 8
  %25 = getelementptr inbounds nuw %struct.SDL_Mouse, ptr %24, i32 0, i32 56
  %26 = load ptr, ptr %25, align 8
  store ptr %26, ptr %6, align 8
  br label %27

27:                                               ; preds = %36, %23
  %28 = load ptr, ptr %6, align 8
  %29 = icmp ne ptr %28, null
  br i1 %29, label %30, label %40

30:                                               ; preds = %27
  %31 = load ptr, ptr %6, align 8
  %32 = load ptr, ptr %3, align 8
  %33 = icmp eq ptr %31, %32
  br i1 %33, label %34, label %35

34:                                               ; preds = %30
  br label %40

35:                                               ; preds = %30
  br label %36

36:                                               ; preds = %35
  %37 = load ptr, ptr %6, align 8
  %38 = getelementptr inbounds nuw %struct.SDL_Cursor, ptr %37, i32 0, i32 0
  %39 = load ptr, ptr %38, align 8
  store ptr %39, ptr %6, align 8
  br label %27, !llvm.loop !10

40:                                               ; preds = %34, %27
  %41 = load ptr, ptr %6, align 8
  %42 = icmp ne ptr %41, null
  br i1 %42, label %45, label %43

43:                                               ; preds = %40
  %44 = call zeroext i1 (ptr, ...) @SDL_SetError_REAL(ptr noundef @.str.28)
  store i1 %44, ptr %2, align 1
  store i32 1, ptr %5, align 4
  br label %46

45:                                               ; preds = %40
  store i32 0, ptr %5, align 4
  br label %46

46:                                               ; preds = %45, %43
  call void @llvm.lifetime.end.p0(i64 8, ptr %6) #7
  %47 = load i32, ptr %5, align 4
  switch i32 %47, label %54 [
    i32 0, label %48
  ]

48:                                               ; preds = %46
  br label %49

49:                                               ; preds = %48, %17
  %50 = load ptr, ptr %3, align 8
  %51 = load ptr, ptr %4, align 8
  %52 = getelementptr inbounds nuw %struct.SDL_Mouse, ptr %51, i32 0, i32 58
  store ptr %50, ptr %52, align 8
  br label %53

53:                                               ; preds = %49, %14
  call void @SDL_RedrawCursor()
  store i1 true, ptr %2, align 1
  store i32 1, ptr %5, align 4
  br label %54

54:                                               ; preds = %53, %46, %13
  call void @llvm.lifetime.end.p0(i64 8, ptr %4) #7
  %55 = load i1, ptr %2, align 1
  ret i1 %55
}

; Function Attrs: nounwind uwtable
define hidden void @SDL_SetDefaultCursor(ptr noundef %0) #0 {
  %2 = alloca ptr, align 8
  %3 = alloca ptr, align 8
  %4 = alloca i32, align 4
  %5 = alloca ptr, align 8
  %6 = alloca ptr, align 8
  %7 = alloca ptr, align 8
  store ptr %0, ptr %2, align 8
  call void @llvm.lifetime.start.p0(i64 8, ptr %3) #7
  %8 = call ptr @SDL_GetMouse()
  store ptr %8, ptr %3, align 8
  %9 = load ptr, ptr %2, align 8
  %10 = load ptr, ptr %3, align 8
  %11 = getelementptr inbounds nuw %struct.SDL_Mouse, ptr %10, i32 0, i32 57
  %12 = load ptr, ptr %11, align 8
  %13 = icmp eq ptr %9, %12
  br i1 %13, label %14, label %15

14:                                               ; preds = %1
  store i32 1, ptr %4, align 4
  br label %99

15:                                               ; preds = %1
  %16 = load ptr, ptr %3, align 8
  %17 = getelementptr inbounds nuw %struct.SDL_Mouse, ptr %16, i32 0, i32 57
  %18 = load ptr, ptr %17, align 8
  %19 = icmp ne ptr %18, null
  br i1 %19, label %20, label %87

20:                                               ; preds = %15
  call void @llvm.lifetime.start.p0(i64 8, ptr %5) #7
  %21 = load ptr, ptr %3, align 8
  %22 = getelementptr inbounds nuw %struct.SDL_Mouse, ptr %21, i32 0, i32 57
  %23 = load ptr, ptr %22, align 8
  store ptr %23, ptr %5, align 8
  call void @llvm.lifetime.start.p0(i64 8, ptr %6) #7
  call void @llvm.lifetime.start.p0(i64 8, ptr %7) #7
  %24 = load ptr, ptr %3, align 8
  %25 = getelementptr inbounds nuw %struct.SDL_Mouse, ptr %24, i32 0, i32 58
  %26 = load ptr, ptr %25, align 8
  %27 = load ptr, ptr %3, align 8
  %28 = getelementptr inbounds nuw %struct.SDL_Mouse, ptr %27, i32 0, i32 57
  %29 = load ptr, ptr %28, align 8
  %30 = icmp eq ptr %26, %29
  br i1 %30, label %31, label %34

31:                                               ; preds = %20
  %32 = load ptr, ptr %3, align 8
  %33 = getelementptr inbounds nuw %struct.SDL_Mouse, ptr %32, i32 0, i32 58
  store ptr null, ptr %33, align 8
  br label %34

34:                                               ; preds = %31, %20
  %35 = load ptr, ptr %3, align 8
  %36 = getelementptr inbounds nuw %struct.SDL_Mouse, ptr %35, i32 0, i32 57
  store ptr null, ptr %36, align 8
  store ptr null, ptr %6, align 8
  %37 = load ptr, ptr %3, align 8
  %38 = getelementptr inbounds nuw %struct.SDL_Mouse, ptr %37, i32 0, i32 56
  %39 = load ptr, ptr %38, align 8
  store ptr %39, ptr %7, align 8
  br label %40

40:                                               ; preds = %64, %34
  %41 = load ptr, ptr %7, align 8
  %42 = icmp ne ptr %41, null
  br i1 %42, label %43, label %69

43:                                               ; preds = %40
  %44 = load ptr, ptr %7, align 8
  %45 = load ptr, ptr %5, align 8
  %46 = icmp eq ptr %44, %45
  br i1 %46, label %47, label %63

47:                                               ; preds = %43
  %48 = load ptr, ptr %6, align 8
  %49 = icmp ne ptr %48, null
  br i1 %49, label %50, label %56

50:                                               ; preds = %47
  %51 = load ptr, ptr %7, align 8
  %52 = getelementptr inbounds nuw %struct.SDL_Cursor, ptr %51, i32 0, i32 0
  %53 = load ptr, ptr %52, align 8
  %54 = load ptr, ptr %6, align 8
  %55 = getelementptr inbounds nuw %struct.SDL_Cursor, ptr %54, i32 0, i32 0
  store ptr %53, ptr %55, align 8
  br label %62

56:                                               ; preds = %47
  %57 = load ptr, ptr %7, align 8
  %58 = getelementptr inbounds nuw %struct.SDL_Cursor, ptr %57, i32 0, i32 0
  %59 = load ptr, ptr %58, align 8
  %60 = load ptr, ptr %3, align 8
  %61 = getelementptr inbounds nuw %struct.SDL_Mouse, ptr %60, i32 0, i32 56
  store ptr %59, ptr %61, align 8
  br label %62

62:                                               ; preds = %56, %50
  br label %69

63:                                               ; preds = %43
  br label %64

64:                                               ; preds = %63
  %65 = load ptr, ptr %7, align 8
  store ptr %65, ptr %6, align 8
  %66 = load ptr, ptr %7, align 8
  %67 = getelementptr inbounds nuw %struct.SDL_Cursor, ptr %66, i32 0, i32 0
  %68 = load ptr, ptr %67, align 8
  store ptr %68, ptr %7, align 8
  br label %40, !llvm.loop !5

69:                                               ; preds = %62, %40
  %70 = load ptr, ptr %3, align 8
  %71 = getelementptr inbounds nuw %struct.SDL_Mouse, ptr %70, i32 0, i32 4
  %72 = load ptr, ptr %71, align 8
  %73 = icmp ne ptr %72, null
  br i1 %73, label %74, label %84

74:                                               ; preds = %69
  %75 = load ptr, ptr %5, align 8
  %76 = getelementptr inbounds nuw %struct.SDL_Cursor, ptr %75, i32 0, i32 1
  %77 = load ptr, ptr %76, align 8
  %78 = icmp ne ptr %77, null
  br i1 %78, label %79, label %84

79:                                               ; preds = %74
  %80 = load ptr, ptr %3, align 8
  %81 = getelementptr inbounds nuw %struct.SDL_Mouse, ptr %80, i32 0, i32 4
  %82 = load ptr, ptr %81, align 8
  %83 = load ptr, ptr %5, align 8
  call void %82(ptr noundef %83)
  br label %86

84:                                               ; preds = %74, %69
  %85 = load ptr, ptr %5, align 8
  call void @SDL_free_REAL(ptr noundef %85)
  br label %86

86:                                               ; preds = %84, %79
  call void @llvm.lifetime.end.p0(i64 8, ptr %7) #7
  call void @llvm.lifetime.end.p0(i64 8, ptr %6) #7
  call void @llvm.lifetime.end.p0(i64 8, ptr %5) #7
  br label %87

87:                                               ; preds = %86, %15
  %88 = load ptr, ptr %2, align 8
  %89 = load ptr, ptr %3, align 8
  %90 = getelementptr inbounds nuw %struct.SDL_Mouse, ptr %89, i32 0, i32 57
  store ptr %88, ptr %90, align 8
  %91 = load ptr, ptr %3, align 8
  %92 = getelementptr inbounds nuw %struct.SDL_Mouse, ptr %91, i32 0, i32 58
  %93 = load ptr, ptr %92, align 8
  %94 = icmp ne ptr %93, null
  br i1 %94, label %98, label %95

95:                                               ; preds = %87
  %96 = load ptr, ptr %2, align 8
  %97 = call zeroext i1 @SDL_SetCursor_REAL(ptr noundef %96)
  br label %98

98:                                               ; preds = %95, %87
  store i32 0, ptr %4, align 4
  br label %99

99:                                               ; preds = %98, %14
  call void @llvm.lifetime.end.p0(i64 8, ptr %3) #7
  %100 = load i32, ptr %4, align 4
  switch i32 %100, label %102 [
    i32 0, label %101
    i32 1, label %101
  ]

101:                                              ; preds = %99, %99
  ret void

102:                                              ; preds = %99
  unreachable
}

; Function Attrs: nounwind uwtable
define hidden ptr @SDL_GetMouse() #0 {
  ret ptr @SDL_mouse
}

; Function Attrs: nounwind uwtable
define hidden void @SDL_PostInitMouse() #0 {
  %1 = alloca ptr, align 8
  %2 = alloca ptr, align 8
  call void @llvm.lifetime.start.p0(i64 8, ptr %1) #7
  %3 = call ptr @SDL_GetMouse()
  store ptr %3, ptr %1, align 8
  %4 = load ptr, ptr %1, align 8
  %5 = getelementptr inbounds nuw %struct.SDL_Mouse, ptr %4, i32 0, i32 57
  %6 = load ptr, ptr %5, align 8
  %7 = icmp ne ptr %6, null
  br i1 %7, label %29, label %8

8:                                                ; preds = %0
  call void @llvm.lifetime.start.p0(i64 8, ptr %2) #7
  %9 = call ptr @SDL_CreateSurface_REAL(i32 noundef 1, i32 noundef 1, i32 noundef 372645892)
  store ptr %9, ptr %2, align 8
  %10 = load ptr, ptr %2, align 8
  %11 = icmp ne ptr %10, null
  br i1 %11, label %12, label %28

12:                                               ; preds = %8
  %13 = load ptr, ptr %2, align 8
  %14 = getelementptr inbounds nuw %struct.SDL_Surface, ptr %13, i32 0, i32 5
  %15 = load ptr, ptr %14, align 8
  %16 = load ptr, ptr %2, align 8
  %17 = getelementptr inbounds nuw %struct.SDL_Surface, ptr %16, i32 0, i32 3
  %18 = load i32, ptr %17, align 4
  %19 = sext i32 %18 to i64
  %20 = load ptr, ptr %2, align 8
  %21 = getelementptr inbounds nuw %struct.SDL_Surface, ptr %20, i32 0, i32 4
  %22 = load i32, ptr %21, align 8
  %23 = sext i32 %22 to i64
  %24 = mul i64 %19, %23
  call void @llvm.memset.p0.i64(ptr align 1 %15, i8 0, i64 %24, i1 false)
  %25 = load ptr, ptr %2, align 8
  %26 = call ptr @SDL_CreateColorCursor_REAL(ptr noundef %25, i32 noundef 0, i32 noundef 0)
  call void @SDL_SetDefaultCursor(ptr noundef %26)
  %27 = load ptr, ptr %2, align 8
  call void @SDL_DestroySurface_REAL(ptr noundef %27)
  br label %28

28:                                               ; preds = %12, %8
  call void @llvm.lifetime.end.p0(i64 8, ptr %2) #7
  br label %29

29:                                               ; preds = %28, %0
  call void @llvm.lifetime.end.p0(i64 8, ptr %1) #7
  ret void
}