; Function Attrs: nounwind uwtable
define hidden void @SDL_PostInitMouse() local_unnamed_addr #0 {
  %1 = load ptr, ptr getelementptr inbounds nuw (i8, ptr @SDL_mouse, i64 272), align 8
  %.not = icmp eq ptr %1, null
  br i1 %.not, label %2, label %54

2:                                                ; preds = %0
  %3 = tail call ptr @SDL_CreateSurface_REAL(i32 noundef 1, i32 noundef 1, i32 noundef 372645892) #13
  %.not7 = icmp eq ptr %3, null
  br i1 %.not7, label %54, label %4

4:                                                ; preds = %2
  %5 = getelementptr inbounds nuw i8, ptr %3, i64 24
  %6 = load ptr, ptr %5, align 8
  %7 = getelementptr inbounds nuw i8, ptr %3, i64 12
  %8 = load i32, ptr %7, align 4
  %9 = sext i32 %8 to i64
  %10 = getelementptr inbounds nuw i8, ptr %3, i64 16
  %11 = load i32, ptr %10, align 8
  %12 = sext i32 %11 to i64
  %13 = mul nsw i64 %12, %9
  tail call void @llvm.memset.p0.i64(ptr align 1 %6, i8 0, i64 %13, i1 false)
  %14 = tail call ptr @SDL_CreateColorCursor_REAL(ptr noundef nonnull %3, i32 noundef 0, i32 noundef 0)
  %15 = load ptr, ptr getelementptr inbounds nuw (i8, ptr @SDL_mouse, i64 272), align 8
  %16 = icmp eq ptr %14, %15
  br i1 %16, label %SDL_SetDefaultCursor.exit, label %17

17:                                               ; preds = %4
  %.not.i = icmp eq ptr %15, null
  br i1 %.not.i, label %36, label %18

18:                                               ; preds = %17
  %19 = load ptr, ptr getelementptr inbounds nuw (i8, ptr @SDL_mouse, i64 280), align 8
  %20 = icmp eq ptr %19, %15
  br i1 %20, label %21, label %22

21:                                               ; preds = %18
  store ptr null, ptr getelementptr inbounds nuw (i8, ptr @SDL_mouse, i64 280), align 8
  br label %22

22:                                               ; preds = %21, %18
  store ptr null, ptr getelementptr inbounds nuw (i8, ptr @SDL_mouse, i64 272), align 8
  br label %23

23:                                               ; preds = %24, %22
  %.028.i = phi ptr [ null, %22 ], [ %.0.i, %24 ]
  %.0.in.i = phi ptr [ getelementptr inbounds nuw (i8, ptr @SDL_mouse, i64 264), %22 ], [ %.0.i, %24 ]
  %.0.i = load ptr, ptr %.0.in.i, align 8
  %.not32.i = icmp eq ptr %.0.i, null
  br i1 %.not32.i, label %.loopexit.i, label %24

24:                                               ; preds = %23
  %25 = icmp eq ptr %.0.i, %15
  br i1 %25, label %26, label %23, !llvm.loop !5

26:                                               ; preds = %24
  %.not33.i = icmp eq ptr %.028.i, null
  %27 = load ptr, ptr %.0.i, align 8
  br i1 %.not33.i, label %29, label %28

28:                                               ; preds = %26
  store ptr %27, ptr %.028.i, align 8
  br label %.loopexit.i

29:                                               ; preds = %26
  store ptr %27, ptr getelementptr inbounds nuw (i8, ptr @SDL_mouse, i64 264), align 8
  br label %.loopexit.i

.loopexit.i:                                      ; preds = %23, %29, %28
  %30 = load ptr, ptr getelementptr inbounds nuw (i8, ptr @SDL_mouse, i64 32), align 8
  %.not34.i = icmp eq ptr %30, null
  br i1 %.not34.i, label %35, label %31

31:                                               ; preds = %.loopexit.i
  %32 = getelementptr inbounds nuw i8, ptr %15, i64 8
  %33 = load ptr, ptr %32, align 8
  %.not35.i = icmp eq ptr %33, null
  br i1 %.not35.i, label %35, label %34

34:                                               ; preds = %31
  tail call void %30(ptr noundef nonnull %15) #13
  br label %36

35:                                               ; preds = %31, %.loopexit.i
  tail call void @SDL_free_REAL(ptr noundef nonnull %15) #13
  br label %36

36:                                               ; preds = %35, %34, %17
  store ptr %14, ptr getelementptr inbounds nuw (i8, ptr @SDL_mouse, i64 272), align 8
  %37 = load ptr, ptr getelementptr inbounds nuw (i8, ptr @SDL_mouse, i64 280), align 8
  %.not36.i = icmp ne ptr %37, null
  %38 = icmp eq ptr %14, null
  %or.cond.i = or i1 %38, %.not36.i
  br i1 %or.cond.i, label %SDL_SetDefaultCursor.exit, label %39

39:                                               ; preds = %36
  store ptr %14, ptr getelementptr inbounds nuw (i8, ptr @SDL_mouse, i64 280), align 8
  %40 = load ptr, ptr getelementptr inbounds nuw (i8, ptr @SDL_mouse, i64 128), align 8
  %.not.i.i.i = icmp eq ptr %40, null
  br i1 %.not.i.i.i, label %50, label %41

41:                                               ; preds = %39
  %42 = load i8, ptr getelementptr inbounds nuw (i8, ptr @SDL_mouse, i64 288), align 8, !range !3, !noundef !4
  %43 = trunc nuw i8 %42 to i1
  br i1 %43, label %44, label %49

44:                                               ; preds = %41
  %45 = load i8, ptr getelementptr inbounds nuw (i8, ptr @SDL_mouse, i64 185), align 1, !range !3, !noundef !4
  %46 = trunc nuw i8 %45 to i1
  %47 = load i8, ptr getelementptr inbounds nuw (i8, ptr @SDL_mouse, i64 187), align 1, !range !3
  %48 = trunc nuw i8 %47 to i1
  %or.cond.i.i.i = select i1 %46, i1 %48, i1 false
  br i1 %or.cond.i.i.i, label %49, label %50

49:                                               ; preds = %44, %41
  br label %50

50:                                               ; preds = %49, %44, %39
  %.1.i.i.i = phi ptr [ null, %49 ], [ %14, %44 ], [ %14, %39 ]
  %51 = load ptr, ptr getelementptr inbounds nuw (i8, ptr @SDL_mouse, i64 16), align 8
  %.not12.i.i.i = icmp eq ptr %51, null
  br i1 %.not12.i.i.i, label %SDL_SetDefaultCursor.exit, label %52

52:                                               ; preds = %50
  %53 = tail call zeroext i1 %51(ptr noundef %.1.i.i.i) #13
  br label %SDL_SetDefaultCursor.exit

SDL_SetDefaultCursor.exit:                        ; preds = %4, %36, %50, %52
  tail call void @SDL_DestroySurface_REAL(ptr noundef nonnull %3) #13
  br label %54

54:                                               ; preds = %2, %SDL_SetDefaultCursor.exit, %0
  ret void
}